target datalayout = "e-m:e-p270:32:32-p271:32:32-p272:64:64-i64:64-i128:128-f80:128-n8:16:32:64-S128"
target triple = "x86_64-pc-linux-gnu"

%struct.GetBitContext = type { ptr, ptr, i32, i32, i32 }
%struct.CBSVP8BoolDecoder = type { ptr, i8, i8, i8 }
%struct.CodedBitstreamContext = type { ptr, ptr, ptr, ptr, i32, i32, i32, ptr, ptr, ptr, ptr, i64 }

@.str = private unnamed_addr constant [30 x i8] c"Assertion %s failed at %s:%d\0A\00", align 1
@.str.3 = private unnamed_addr constant [21 x i8] c"libavcodec/cbs_vp8.c\00", align 1
@.str.19 = private unnamed_addr constant [31 x i8] c"start_position <= end_position\00", align 1
@.str.47 = private unnamed_addr constant [25 x i8] c"width >= 0 && width <= 8\00", align 1
@.str.48 = private unnamed_addr constant [15 x i8] c"num_bits <= 32\00", align 1

; Function Attrs: inlinehint nounwind uwtable
define internal i32 @get_bits_count(ptr noundef %0) #3 {
  %2 = alloca ptr, align 8
  store ptr %0, ptr %2, align 8, !tbaa !37
  %3 = load ptr, ptr %2, align 8, !tbaa !37
  %4 = getelementptr inbounds nuw %struct.GetBitContext, ptr %3, i32 0, i32 2
  %5 = load i32, ptr %4, align 8, !tbaa !40
  ret i32 %5
}

; Function Attrs: nounwind uwtable
define internal i32 @cbs_vp8_bool_decoder_read_literal(ptr noundef %0, i8 noundef zeroext %1, i32 noundef %2, ptr noundef %3) #0 {
  %5 = alloca i32, align 4
  %6 = alloca ptr, align 8
  %7 = alloca i8, align 1
  %8 = alloca i32, align 4
  %9 = alloca ptr, align 8
  %10 = alloca i32, align 4
  %11 = alloca i8, align 1
  %12 = alloca i32, align 4
  store ptr %0, ptr %6, align 8, !tbaa !42
  store i8 %1, ptr %7, align 1, !tbaa !72
  store i32 %2, ptr %8, align 4, !tbaa !11
  store ptr %3, ptr %9, align 8, !tbaa !63
  call void @llvm.lifetime.start.p0(i64 4, ptr %10) #8
  store i32 0, ptr %10, align 4, !tbaa !11
  br label %13

13:                                               ; preds = %4
  %14 = load i32, ptr %8, align 4, !tbaa !11
  %15 = icmp ule i32 %14, 32
  br i1 %15, label %17, label %16

16:                                               ; preds = %13
  call void (ptr, i32, ptr, ...) @av_log(ptr noundef null, i32 noundef 0, ptr noundef @.str, ptr noundef @.str.48, ptr noundef @.str.3, i32 noundef 109)
  call void @abort() #9
  unreachable

17:                                               ; preds = %13
  br label %18

18:                                               ; preds = %17
  br label %19

19:                                               ; preds = %18
  %20 = load ptr, ptr %9, align 8, !tbaa !63
  store i32 0, ptr %20, align 4, !tbaa !11
  br label %21

21:                                               ; preds = %42, %19
  %22 = load i32, ptr %8, align 4, !tbaa !11
  %23 = icmp ugt i32 %22, 0
  br i1 %23, label %24, label %45

24:                                               ; preds = %21
  call void @llvm.lifetime.start.p0(i64 1, ptr %11) #8
  store i8 0, ptr %11, align 1, !tbaa !72
  %25 = load ptr, ptr %6, align 8, !tbaa !42
  %26 = load i8, ptr %7, align 1, !tbaa !72
  %27 = call i32 @cbs_vp8_bool_decoder_read_bool(ptr noundef %25, i8 noundef zeroext %26, ptr noundef %11)
  store i32 %27, ptr %10, align 4, !tbaa !11
  %28 = icmp ne i32 %27, 0
  br i1 %28, label %29, label %31

29:                                               ; preds = %24
  %30 = load i32, ptr %10, align 4, !tbaa !11
  store i32 %30, ptr %5, align 4
  store i32 1, ptr %12, align 4
  br label %39

31:                                               ; preds = %24
  %32 = load ptr, ptr %9, align 8, !tbaa !63
  %33 = load i32, ptr %32, align 4, !tbaa !11
  %34 = shl i32 %33, 1
  %35 = load i8, ptr %11, align 1, !tbaa !72
  %36 = zext i8 %35 to i32
  %37 = or i32 %34, %36
  %38 = load ptr, ptr %9, align 8, !tbaa !63
  store i32 %37, ptr %38, align 4, !tbaa !11
  store i32 0, ptr %12, align 4
  br label %39

39:                                               ; preds = %31, %29
  call void @llvm.lifetime.end.p0(i64 1, ptr %11) #8
  %40 = load i32, ptr %12, align 4
  switch i32 %40, label %46 [
    i32 0, label %41
  ]

41:                                               ; preds = %39
  br label %42

42:                                               ; preds = %41
  %43 = load i32, ptr %8, align 4, !tbaa !11
  %44 = add i32 %43, -1
  store i32 %44, ptr %8, align 4, !tbaa !11
  br label %21, !llvm.loop !129

45:                                               ; preds = %21
  store i32 0, ptr %5, align 4
  store i32 1, ptr %12, align 4
  br label %46

46:                                               ; preds = %45, %39
  call void @llvm.lifetime.end.p0(i64 4, ptr %10) #8
  %47 = load i32, ptr %5, align 4
  ret i32 %47
}

; Function Attrs: nounwind uwtable
define internal i32 @cbs_vp8_bool_decoder_read_signed(ptr noundef %0, ptr noundef %1, i32 noundef %2, i8 noundef zeroext %3, ptr noundef %4, ptr noundef %5, ptr noundef %6) #0 {
  %8 = alloca i32, align 4
  %9 = alloca ptr, align 8
  %10 = alloca ptr, align 8
  %11 = alloca i32, align 4
  %12 = alloca i8, align 1
  %13 = alloca ptr, align 8
  %14 = alloca ptr, align 8
  %15 = alloca ptr, align 8
  %16 = alloca i32, align 4
  %17 = alloca ptr, align 8
  %18 = alloca i32, align 4
  %19 = alloca i8, align 1
  %20 = alloca %struct.GetBitContext, align 8
  %21 = alloca i32, align 4
  %22 = alloca i32, align 4
  %23 = alloca i32, align 4
  store ptr %0, ptr %9, align 8, !tbaa !4
  store ptr %1, ptr %10, align 8, !tbaa !42
  store i32 %2, ptr %11, align 4, !tbaa !11
  store i8 %3, ptr %12, align 1, !tbaa !72
  store ptr %4, ptr %13, align 8, !tbaa !39
  store ptr %5, ptr %14, align 8, !tbaa !63
  store ptr %6, ptr %15, align 8, !tbaa !63
  call void @llvm.lifetime.start.p0(i64 4, ptr %16) #8
  store i32 0, ptr %16, align 4, !tbaa !11
  call void @llvm.lifetime.start.p0(i64 8, ptr %17) #8
  %24 = load ptr, ptr %10, align 8, !tbaa !42
  %25 = getelementptr inbounds nuw %struct.CBSVP8BoolDecoder, ptr %24, i32 0, i32 0
  %26 = load ptr, ptr %25, align 8, !tbaa !44
  store ptr %26, ptr %17, align 8, !tbaa !37
  call void @llvm.lifetime.start.p0(i64 4, ptr %18) #8
  call void @llvm.lifetime.start.p0(i64 1, ptr %19) #8
  store i8 0, ptr %19, align 1, !tbaa !72
  call void @llvm.lifetime.start.p0(i64 32, ptr %20) #8
  br label %27

27:                                               ; preds = %7
  %28 = load ptr, ptr %9, align 8, !tbaa !4
  %29 = getelementptr inbounds nuw %struct.CodedBitstreamContext, ptr %28, i32 0, i32 5
  %30 = load i32, ptr %29, align 4, !tbaa !65
  %31 = icmp ne i32 %30, 0
  br i1 %31, label %32, label %34

32:                                               ; preds = %27
  %33 = load ptr, ptr %17, align 8, !tbaa !37
  call void @llvm.memcpy.p0.p0.i64(ptr align 8 %20, ptr align 8 %33, i64 32, i1 false), !tbaa.struct !68
  br label %34

34:                                               ; preds = %32, %27
  br label %35

35:                                               ; preds = %34
  br label %36

36:                                               ; preds = %35
  br label %37

37:                                               ; preds = %36
  %38 = load i32, ptr %11, align 4, !tbaa !11
  %39 = icmp sge i32 %38, 0
  br i1 %39, label %40, label %43

40:                                               ; preds = %37
  %41 = load i32, ptr %11, align 4, !tbaa !11
  %42 = icmp sle i32 %41, 8
  br i1 %42, label %44, label %43

43:                                               ; preds = %40, %37
  call void (ptr, i32, ptr, ...) @av_log(ptr noundef null, i32 noundef 0, ptr noundef @.str, ptr noundef @.str.47, ptr noundef @.str.3, i32 noundef 162)
  call void @abort() #9
  unreachable

44:                                               ; preds = %40
  br label %45

45:                                               ; preds = %44
  br label %46

46:                                               ; preds = %45
  %47 = load ptr, ptr %10, align 8, !tbaa !42
  %48 = load i8, ptr %12, align 1, !tbaa !72
  %49 = load i32, ptr %11, align 4, !tbaa !11
  %50 = call i32 @cbs_vp8_bool_decoder_read_literal(ptr noundef %47, i8 noundef zeroext %48, i32 noundef %49, ptr noundef %18)
  store i32 %50, ptr %16, align 4, !tbaa !11
  %51 = load i32, ptr %16, align 4, !tbaa !11
  %52 = icmp ne i32 %51, 0
  br i1 %52, label %53, label %55

53:                                               ; preds = %46
  %54 = load i32, ptr %16, align 4, !tbaa !11
  store i32 %54, ptr %8, align 4
  store i32 1, ptr %21, align 4
  br label %105

55:                                               ; preds = %46
  %56 = load ptr, ptr %10, align 8, !tbaa !42
  %57 = load i8, ptr %12, align 1, !tbaa !72
  %58 = call i32 @cbs_vp8_bool_decoder_read_bool(ptr noundef %56, i8 noundef zeroext %57, ptr noundef %19)
  store i32 %58, ptr %16, align 4, !tbaa !11
  %59 = load i32, ptr %16, align 4, !tbaa !11
  %60 = icmp ne i32 %59, 0
  br i1 %60, label %61, label %63

61:                                               ; preds = %55
  %62 = load i32, ptr %16, align 4, !tbaa !11
  store i32 %62, ptr %8, align 4
  store i32 1, ptr %21, align 4
  br label %105

63:                                               ; preds = %55
  %64 = load i8, ptr %19, align 1, !tbaa !72
  %65 = icmp ne i8 %64, 0
  br i1 %65, label %66, label %69

66:                                               ; preds = %63
  %67 = load i32, ptr %18, align 4, !tbaa !11
  %68 = sub nsw i32 0, %67
  store i32 %68, ptr %18, align 4, !tbaa !11
  br label %69

69:                                               ; preds = %66, %63
  br label %70

70:                                               ; preds = %69
  %71 = load ptr, ptr %9, align 8, !tbaa !4
  %72 = getelementptr inbounds nuw %struct.CodedBitstreamContext, ptr %71, i32 0, i32 5
  %73 = load i32, ptr %72, align 4, !tbaa !65
  %74 = icmp ne i32 %73, 0
  br i1 %74, label %75, label %100

75:                                               ; preds = %70
  call void @llvm.lifetime.start.p0(i64 4, ptr %22) #8
  %76 = call i32 @get_bits_count(ptr noundef %20)
  store i32 %76, ptr %22, align 4, !tbaa !11
  call void @llvm.lifetime.start.p0(i64 4, ptr %23) #8
  %77 = load ptr, ptr %17, align 8, !tbaa !37
  %78 = call i32 @get_bits_count(ptr noundef %77)
  store i32 %78, ptr %23, align 4, !tbaa !11
  br label %79

79:                                               ; preds = %75
  %80 = load i32, ptr %22, align 4, !tbaa !11
  %81 = load i32, ptr %23, align 4, !tbaa !11
  %82 = icmp sle i32 %80, %81
  br i1 %82, label %84, label %83

83:                                               ; preds = %79
  call void (ptr, i32, ptr, ...) @av_log(ptr noundef null, i32 noundef 0, ptr noundef @.str, ptr noundef @.str.19, ptr noundef @.str.3, i32 noundef 178)
  call void @abort() #9
  unreachable

84:                                               ; preds = %79
  br label %85

85:                                               ; preds = %84
  br label %86

86:                                               ; preds = %85
  %87 = load ptr, ptr %9, align 8, !tbaa !4
  %88 = getelementptr inbounds nuw %struct.CodedBitstreamContext, ptr %87, i32 0, i32 8
  %89 = load ptr, ptr %88, align 8, !tbaa !70
  %90 = load ptr, ptr %9, align 8, !tbaa !4
  %91 = getelementptr inbounds nuw %struct.CodedBitstreamContext, ptr %90, i32 0, i32 7
  %92 = load ptr, ptr %91, align 8, !tbaa !71
  %93 = load i32, ptr %23, align 4, !tbaa !11
  %94 = load i32, ptr %22, align 4, !tbaa !11
  %95 = sub nsw i32 %93, %94
  %96 = load ptr, ptr %13, align 8, !tbaa !39
  %97 = load ptr, ptr %14, align 8, !tbaa !63
  %98 = load i32, ptr %18, align 4, !tbaa !11
  %99 = sext i32 %98 to i64
  call void %89(ptr noundef %92, ptr noundef %20, i32 noundef %95, ptr noundef %96, ptr noundef %97, i64 noundef %99)
  call void @llvm.lifetime.end.p0(i64 4, ptr %23) #8
  call void @llvm.lifetime.end.p0(i64 4, ptr %22) #8
  br label %100

100:                                              ; preds = %86, %70
  br label %101

101:                                              ; preds = %100
  br label %102

102:                                              ; preds = %101
  %103 = load i32, ptr %18, align 4, !tbaa !11
  %104 = load ptr, ptr %15, align 8, !tbaa !63
  store i32 %103, ptr %104, align 4, !tbaa !11
  store i32 0, ptr %8, align 4
  store i32 1, ptr %21, align 4
  br label %105

105:                                              ; preds = %102, %61, %53
  call void @llvm.lifetime.end.p0(i64 32, ptr %20) #8
  call void @llvm.lifetime.end.p0(i64 1, ptr %19) #8
  call void @llvm.lifetime.end.p0(i64 4, ptr %18) #8
  call void @llvm.lifetime.end.p0(i64 8, ptr %17) #8
  call void @llvm.lifetime.end.p0(i64 4, ptr %16) #8
  %106 = load i32, ptr %8, align 4
  ret i32 %106
}