; Function Attrs: nounwind uwtable
define internal fastcc range(i32 -1094995529, 1) i32 @cbs_vp8_bool_decoder_read_signed(ptr noundef readonly captures(none) %0, ptr noundef nonnull captures(none) %1, i32 noundef range(i32 4, 8) %2, ptr noundef %3, ptr noundef %4, ptr noundef nonnull writeonly captures(none) %5) unnamed_addr #0 {
  %7 = alloca i8, align 1
  %8 = alloca i8, align 1
  %9 = alloca %struct.GetBitContext, align 8
  %10 = load ptr, ptr %1, align 8, !tbaa !37
  call void @llvm.lifetime.start.p0(i64 1, ptr nonnull %8) #7
  store i8 0, ptr %8, align 1, !tbaa !49
  call void @llvm.lifetime.start.p0(i64 32, ptr nonnull %9) #7
  %11 = getelementptr inbounds nuw i8, ptr %0, i64 36
  %12 = load i32, ptr %11, align 4, !tbaa !43
  %.not = icmp eq i32 %12, 0
  br i1 %.not, label %.preheader, label %13

13:                                               ; preds = %6
  call void @llvm.memcpy.p0.p0.i64(ptr noundef nonnull align 8 dereferenceable(32) %9, ptr noundef nonnull align 8 dereferenceable(32) %10, i64 32, i1 false), !tbaa.struct !47
  br label %.preheader

.preheader:                                       ; preds = %13, %6
  br label %14

14:                                               ; preds = %.preheader, %16
  %.1 = phi i32 [ %20, %16 ], [ 0, %.preheader ]
  %.01117.i = phi i32 [ %21, %16 ], [ %2, %.preheader ]
  call void @llvm.lifetime.start.p0(i64 1, ptr nonnull %7) #7
  store i8 0, ptr %7, align 1, !tbaa !49
  %15 = call fastcc i32 @cbs_vp8_bool_decoder_read_bool(ptr noundef nonnull %1, i8 noundef zeroext -128, ptr noundef %7)
  %.not14.i = icmp eq i32 %15, 0
  br i1 %.not14.i, label %16, label %cbs_vp8_bool_decoder_read_literal.exit

16:                                               ; preds = %14
  %17 = shl i32 %.1, 1
  %18 = load i8, ptr %7, align 1, !tbaa !49
  %19 = zext i8 %18 to i32
  %20 = or i32 %17, %19
  call void @llvm.lifetime.end.p0(i64 1, ptr nonnull %7) #7
  %21 = add nsw i32 %.01117.i, -1
  %.not.i = icmp eq i32 %21, 0
  br i1 %.not.i, label %22, label %14, !llvm.loop !61

cbs_vp8_bool_decoder_read_literal.exit:           ; preds = %14
  call void @llvm.lifetime.end.p0(i64 1, ptr nonnull %7) #7
  br label %40

22:                                               ; preds = %16
  %23 = call fastcc i32 @cbs_vp8_bool_decoder_read_bool(ptr noundef %1, i8 noundef zeroext -128, ptr noundef %8)
  %.not32 = icmp eq i32 %23, 0
  br i1 %.not32, label %24, label %40

24:                                               ; preds = %22
  %25 = load i8, ptr %8, align 1, !tbaa !49
  %.not33 = icmp eq i8 %25, 0
  %26 = sub nsw i32 0, %20
  %spec.select = select i1 %.not33, i32 %20, i32 %26
  %27 = load i32, ptr %11, align 4, !tbaa !43
  %.not34 = icmp eq i32 %27, 0
  br i1 %.not34, label %39, label %28

28:                                               ; preds = %24
  %29 = getelementptr inbounds nuw i8, ptr %9, i64 16
  %.val36 = load i32, ptr %29, align 8, !tbaa !25
  %30 = getelementptr i8, ptr %10, i64 16
  %.val = load i32, ptr %30, align 8, !tbaa !25
  %.not35 = icmp sgt i32 %.val36, %.val
  br i1 %.not35, label %31, label %32

31:                                               ; preds = %28
  tail call void (ptr, i32, ptr, ...) @av_log(ptr noundef null, i32 noundef 0, ptr noundef nonnull @.str, ptr noundef nonnull @.str.19, ptr noundef nonnull @.str.3, i32 noundef 178) #7
  tail call void @abort() #8
  unreachable

32:                                               ; preds = %28
  %33 = getelementptr inbounds nuw i8, ptr %0, i64 56
  %34 = load ptr, ptr %33, align 8, !tbaa !51
  %35 = getelementptr inbounds nuw i8, ptr %0, i64 48
  %36 = load ptr, ptr %35, align 8, !tbaa !52
  %37 = sub nsw i32 %.val, %.val36
  %38 = sext i32 %spec.select to i64
  call void %34(ptr noundef %36, ptr noundef nonnull %9, i32 noundef %37, ptr noundef %3, ptr noundef %4, i64 noundef %38) #7
  br label %39

39:                                               ; preds = %32, %24
  store i32 %spec.select, ptr %5, align 4, !tbaa !26
  br label %40

40:                                               ; preds = %cbs_vp8_bool_decoder_read_literal.exit, %22, %39
  %.0 = phi i32 [ 0, %39 ], [ %15, %cbs_vp8_bool_decoder_read_literal.exit ], [ %23, %22 ]
  call void @llvm.lifetime.end.p0(i64 32, ptr nonnull %9) #7
  call void @llvm.lifetime.end.p0(i64 1, ptr nonnull %8) #7
  ret i32 %.0
}